target datalayout = "e-m:e-p270:32:32-p271:32:32-p272:64:64-i64:64-i128:128-f80:128-n8:16:32:64-S128"
target triple = "x86_64-pc-linux-gnu"

%struct.timeval = type { i64, i64 }
%struct.fd_set = type { [16 x i64] }

@.str.216 = private unnamed_addr constant [29 x i8] c"... client would read block\0A\00", align 1
@.str.217 = private unnamed_addr constant [30 x i8] c"... client would write block\0A\00", align 1
@.str.218 = private unnamed_addr constant [29 x i8] c"Nonblocking connect timeout\0A\00", align 1

; Function Attrs: inlinehint nounwind uwtable
define internal i32 @tcp_select_ex(i32 noundef %0, i32 noundef %1, i32 noundef %2) #2 {
  %4 = alloca i32, align 4
  %5 = alloca i32, align 4
  %6 = alloca i32, align 4
  %7 = alloca i32, align 4
  %8 = alloca %struct.fd_set, align 8
  %9 = alloca %struct.fd_set, align 8
  %10 = alloca ptr, align 8
  %11 = alloca ptr, align 8
  %12 = alloca i32, align 4
  %13 = alloca %struct.timeval, align 8
  %14 = alloca i32, align 4
  %15 = alloca i32, align 4
  %16 = alloca ptr, align 8
  %17 = alloca i32, align 4
  %18 = alloca ptr, align 8
  %19 = alloca i32, align 4
  store i32 %0, ptr %5, align 4, !tbaa !8
  store i32 %1, ptr %6, align 4, !tbaa !8
  store i32 %2, ptr %7, align 4, !tbaa !8
  call void @llvm.lifetime.start.p0(i64 128, ptr %8) #13
  call void @llvm.lifetime.start.p0(i64 128, ptr %9) #13
  call void @llvm.lifetime.start.p0(i64 8, ptr %10) #13
  store ptr null, ptr %10, align 8, !tbaa !4
  call void @llvm.lifetime.start.p0(i64 8, ptr %11) #13
  store ptr null, ptr %11, align 8, !tbaa !4
  call void @llvm.lifetime.start.p0(i64 4, ptr %12) #13
  %20 = load i32, ptr %5, align 4, !tbaa !8
  %21 = add nsw i32 %20, 1
  store i32 %21, ptr %12, align 4, !tbaa !8
  call void @llvm.lifetime.start.p0(i64 16, ptr %13) #13
  %22 = getelementptr inbounds nuw %struct.timeval, ptr %13, i32 0, i32 0
  %23 = load i32, ptr %6, align 4, !tbaa !8
  %24 = icmp sgt i32 %23, 0
  br i1 %24, label %25, label %27

25:                                               ; preds = %3
  %26 = load i32, ptr %6, align 4, !tbaa !8
  br label %28

27:                                               ; preds = %3
  br label %28

28:                                               ; preds = %27, %25
  %29 = phi i32 [ %26, %25 ], [ 0, %27 ]
  %30 = sext i32 %29 to i64
  store i64 %30, ptr %22, align 8, !tbaa !74
  %31 = getelementptr inbounds nuw %struct.timeval, ptr %13, i32 0, i32 1
  store i64 0, ptr %31, align 8, !tbaa !76
  call void @llvm.lifetime.start.p0(i64 4, ptr %14) #13
  br label %32

32:                                               ; preds = %28
  call void @llvm.lifetime.start.p0(i64 4, ptr %15) #13
  call void @llvm.lifetime.start.p0(i64 8, ptr %16) #13
  store ptr %8, ptr %16, align 8, !tbaa !4
  store i32 0, ptr %15, align 4, !tbaa !8
  br label %33

33:                                               ; preds = %43, %32
  %34 = load i32, ptr %15, align 4, !tbaa !8
  %35 = zext i32 %34 to i64
  %36 = icmp ult i64 %35, 16
  br i1 %36, label %37, label %46

37:                                               ; preds = %33
  %38 = load ptr, ptr %16, align 8, !tbaa !4
  %39 = getelementptr inbounds nuw %struct.fd_set, ptr %38, i32 0, i32 0
  %40 = load i32, ptr %15, align 4, !tbaa !8
  %41 = zext i32 %40 to i64
  %42 = getelementptr inbounds nuw [16 x i64], ptr %39, i64 0, i64 %41
  store i64 0, ptr %42, align 8, !tbaa !20
  br label %43

43:                                               ; preds = %37
  %44 = load i32, ptr %15, align 4, !tbaa !8
  %45 = add i32 %44, 1
  store i32 %45, ptr %15, align 4, !tbaa !8
  br label %33, !llvm.loop !91

46:                                               ; preds = %33
  call void @llvm.lifetime.end.p0(i64 8, ptr %16) #13
  call void @llvm.lifetime.end.p0(i64 4, ptr %15) #13
  br label %47

47:                                               ; preds = %46
  br label %48

48:                                               ; preds = %47
  %49 = load i32, ptr %5, align 4, !tbaa !8
  %50 = srem i32 %49, 64
  %51 = zext i32 %50 to i64
  %52 = shl i64 1, %51
  %53 = getelementptr inbounds nuw %struct.fd_set, ptr %8, i32 0, i32 0
  %54 = load i32, ptr %5, align 4, !tbaa !8
  %55 = sdiv i32 %54, 64
  %56 = sext i32 %55 to i64
  %57 = getelementptr inbounds [16 x i64], ptr %53, i64 0, i64 %56
  %58 = load i64, ptr %57, align 8, !tbaa !20
  %59 = or i64 %58, %52
  store i64 %59, ptr %57, align 8, !tbaa !20
  br label %60

60:                                               ; preds = %48
  call void @llvm.lifetime.start.p0(i64 4, ptr %17) #13
  call void @llvm.lifetime.start.p0(i64 8, ptr %18) #13
  store ptr %9, ptr %18, align 8, !tbaa !4
  store i32 0, ptr %17, align 4, !tbaa !8
  br label %61

61:                                               ; preds = %71, %60
  %62 = load i32, ptr %17, align 4, !tbaa !8
  %63 = zext i32 %62 to i64
  %64 = icmp ult i64 %63, 16
  br i1 %64, label %65, label %74

65:                                               ; preds = %61
  %66 = load ptr, ptr %18, align 8, !tbaa !4
  %67 = getelementptr inbounds nuw %struct.fd_set, ptr %66, i32 0, i32 0
  %68 = load i32, ptr %17, align 4, !tbaa !8
  %69 = zext i32 %68 to i64
  %70 = getelementptr inbounds nuw [16 x i64], ptr %67, i64 0, i64 %69
  store i64 0, ptr %70, align 8, !tbaa !20
  br label %71

71:                                               ; preds = %65
  %72 = load i32, ptr %17, align 4, !tbaa !8
  %73 = add i32 %72, 1
  store i32 %73, ptr %17, align 4, !tbaa !8
  br label %61, !llvm.loop !92

74:                                               ; preds = %61
  call void @llvm.lifetime.end.p0(i64 8, ptr %18) #13
  call void @llvm.lifetime.end.p0(i64 4, ptr %17) #13
  br label %75

75:                                               ; preds = %74
  br label %76

76:                                               ; preds = %75
  %77 = load i32, ptr %5, align 4, !tbaa !8
  %78 = srem i32 %77, 64
  %79 = zext i32 %78 to i64
  %80 = shl i64 1, %79
  %81 = getelementptr inbounds nuw %struct.fd_set, ptr %9, i32 0, i32 0
  %82 = load i32, ptr %5, align 4, !tbaa !8
  %83 = sdiv i32 %82, 64
  %84 = sext i32 %83 to i64
  %85 = getelementptr inbounds [16 x i64], ptr %81, i64 0, i64 %84
  %86 = load i64, ptr %85, align 8, !tbaa !20
  %87 = or i64 %86, %80
  store i64 %87, ptr %85, align 8, !tbaa !20
  %88 = load i32, ptr %7, align 4, !tbaa !8
  %89 = icmp ne i32 %88, 0
  br i1 %89, label %90, label %91

90:                                               ; preds = %76
  store ptr %8, ptr %10, align 8, !tbaa !4
  br label %92

91:                                               ; preds = %76
  store ptr %8, ptr %11, align 8, !tbaa !4
  br label %92

92:                                               ; preds = %91, %90
  %93 = load i32, ptr %12, align 4, !tbaa !8
  %94 = load ptr, ptr %10, align 8, !tbaa !4
  %95 = load ptr, ptr %11, align 8, !tbaa !4
  %96 = call i32 @select(i32 noundef %93, ptr noundef %94, ptr noundef %95, ptr noundef %9, ptr noundef %13)
  store i32 %96, ptr %14, align 4, !tbaa !8
  %97 = load i32, ptr %14, align 4, !tbaa !8
  %98 = icmp eq i32 %97, 0
  br i1 %98, label %99, label %100

99:                                               ; preds = %92
  store i32 1, ptr %4, align 4
  store i32 1, ptr %19, align 4
  br label %139

100:                                              ; preds = %92
  %101 = load i32, ptr %14, align 4, !tbaa !8
  %102 = icmp sgt i32 %101, 0
  br i1 %102, label %103, label %137

103:                                              ; preds = %100
  %104 = getelementptr inbounds nuw %struct.fd_set, ptr %8, i32 0, i32 0
  %105 = load i32, ptr %5, align 4, !tbaa !8
  %106 = sdiv i32 %105, 64
  %107 = sext i32 %106 to i64
  %108 = getelementptr inbounds [16 x i64], ptr %104, i64 0, i64 %107
  %109 = load i64, ptr %108, align 8, !tbaa !20
  %110 = load i32, ptr %5, align 4, !tbaa !8
  %111 = srem i32 %110, 64
  %112 = zext i32 %111 to i64
  %113 = shl i64 1, %112
  %114 = and i64 %109, %113
  %115 = icmp ne i64 %114, 0
  br i1 %115, label %116, label %121

116:                                              ; preds = %103
  %117 = load i32, ptr %7, align 4, !tbaa !8
  %118 = icmp ne i32 %117, 0
  br i1 %118, label %119, label %120

119:                                              ; preds = %116
  store i32 2, ptr %4, align 4
  store i32 1, ptr %19, align 4
  br label %139

120:                                              ; preds = %116
  store i32 3, ptr %4, align 4
  store i32 1, ptr %19, align 4
  br label %139

121:                                              ; preds = %103
  %122 = getelementptr inbounds nuw %struct.fd_set, ptr %9, i32 0, i32 0
  %123 = load i32, ptr %5, align 4, !tbaa !8
  %124 = sdiv i32 %123, 64
  %125 = sext i32 %124 to i64
  %126 = getelementptr inbounds [16 x i64], ptr %122, i64 0, i64 %125
  %127 = load i64, ptr %126, align 8, !tbaa !20
  %128 = load i32, ptr %5, align 4, !tbaa !8
  %129 = srem i32 %128, 64
  %130 = zext i32 %129 to i64
  %131 = shl i64 1, %130
  %132 = and i64 %127, %131
  %133 = icmp ne i64 %132, 0
  br i1 %133, label %134, label %135

134:                                              ; preds = %121
  store i32 4, ptr %4, align 4
  store i32 1, ptr %19, align 4
  br label %139

135:                                              ; preds = %121
  br label %136

136:                                              ; preds = %135
  br label %137

137:                                              ; preds = %136, %100
  br label %138

138:                                              ; preds = %137
  store i32 0, ptr %4, align 4
  store i32 1, ptr %19, align 4
  br label %139

139:                                              ; preds = %138, %134, %120, %119, %99
  call void @llvm.lifetime.end.p0(i64 4, ptr %14) #13
  call void @llvm.lifetime.end.p0(i64 16, ptr %13) #13
  call void @llvm.lifetime.end.p0(i64 4, ptr %12) #13
  call void @llvm.lifetime.end.p0(i64 8, ptr %11) #13
  call void @llvm.lifetime.end.p0(i64 8, ptr %10) #13
  call void @llvm.lifetime.end.p0(i64 128, ptr %9) #13
  call void @llvm.lifetime.end.p0(i64 128, ptr %8) #13
  %140 = load i32, ptr %4, align 4
  ret i32 %140
}

; Function Attrs: inlinehint nounwind uwtable
define internal i32 @tcp_select(i32 noundef %0, i32 noundef %1) #2 {
  %3 = alloca i32, align 4
  %4 = alloca i32, align 4
  store i32 %0, ptr %3, align 4, !tbaa !8
  store i32 %1, ptr %4, align 4, !tbaa !8
  %5 = load i32, ptr %3, align 4, !tbaa !8
  %6 = load i32, ptr %4, align 4, !tbaa !8
  %7 = call i32 @tcp_select_ex(i32 noundef %5, i32 noundef %6, i32 noundef 1)
  ret i32 %7
}

; Function Attrs: inlinehint nounwind uwtable
define internal i32 @tcp_select_tx(i32 noundef %0, i32 noundef %1) #2 {
  %3 = alloca i32, align 4
  %4 = alloca i32, align 4
  store i32 %0, ptr %3, align 4, !tbaa !8
  store i32 %1, ptr %4, align 4, !tbaa !8
  %5 = load i32, ptr %3, align 4, !tbaa !8
  %6 = load i32, ptr %4, align 4, !tbaa !8
  %7 = call i32 @tcp_select_ex(i32 noundef %5, i32 noundef %6, i32 noundef 0)
  ret i32 %7
}

; Function Attrs: nounwind uwtable
define internal i32 @NonBlockingSSL_Connect(ptr noundef %0) #0 {
  %2 = alloca ptr, align 8
  %3 = alloca i32, align 4
  %4 = alloca i32, align 4
  %5 = alloca i32, align 4
  %6 = alloca i32, align 4
  %7 = alloca i32, align 4
  %8 = alloca i32, align 4
  store ptr %0, ptr %2, align 8, !tbaa !12
  call void @llvm.lifetime.start.p0(i64 4, ptr %3) #13
  call void @llvm.lifetime.start.p0(i64 4, ptr %4) #13
  call void @llvm.lifetime.start.p0(i64 4, ptr %5) #13
  call void @llvm.lifetime.start.p0(i64 4, ptr %6) #13
  store i32 0, ptr %6, align 4, !tbaa !8
  call void @llvm.lifetime.start.p0(i64 4, ptr %7) #13
  store i32 0, ptr %7, align 4, !tbaa !8
  %9 = load ptr, ptr %2, align 8, !tbaa !12
  %10 = call i32 @wolfSSL_connect(ptr noundef %9)
  store i32 %10, ptr %3, align 4, !tbaa !8
  %11 = load ptr, ptr %2, align 8, !tbaa !12
  %12 = call i32 @wolfSSL_get_error(ptr noundef %11, i32 noundef 0)
  store i32 %12, ptr %4, align 4, !tbaa !8
  %13 = load ptr, ptr %2, align 8, !tbaa !12
  %14 = call i32 @wolfSSL_get_fd(ptr noundef %13)
  store i32 %14, ptr %5, align 4, !tbaa !8
  br label %15

15:                                               ; preds = %82, %1
  %16 = load i32, ptr %3, align 4, !tbaa !8
  %17 = icmp ne i32 %16, 1
  br i1 %17, label %18, label %26

18:                                               ; preds = %15
  %19 = load i32, ptr %4, align 4, !tbaa !8
  %20 = icmp eq i32 %19, 2
  br i1 %20, label %24, label %21

21:                                               ; preds = %18
  %22 = load i32, ptr %4, align 4, !tbaa !8
  %23 = icmp eq i32 %22, 3
  br label %24

24:                                               ; preds = %21, %18
  %25 = phi i1 [ true, %18 ], [ %23, %21 ]
  br label %26

26:                                               ; preds = %24, %15
  %27 = phi i1 [ false, %15 ], [ %25, %24 ]
  br i1 %27, label %28, label %83

28:                                               ; preds = %26
  call void @llvm.lifetime.start.p0(i64 4, ptr %8) #13
  store i32 1, ptr %8, align 4, !tbaa !8
  %29 = load i32, ptr %4, align 4, !tbaa !8
  %30 = icmp eq i32 %29, 2
  br i1 %30, label %31, label %33

31:                                               ; preds = %28
  %32 = call i32 (ptr, ...) @printf(ptr noundef @.str.216)
  br label %39

33:                                               ; preds = %28
  %34 = load i32, ptr %4, align 4, !tbaa !8
  %35 = icmp eq i32 %34, 3
  br i1 %35, label %36, label %38

36:                                               ; preds = %33
  %37 = call i32 (ptr, ...) @printf(ptr noundef @.str.217)
  br label %38

38:                                               ; preds = %36, %33
  br label %39

39:                                               ; preds = %38, %31
  %40 = load i32, ptr %4, align 4, !tbaa !8
  %41 = icmp eq i32 %40, 3
  br i1 %41, label %42, label %46

42:                                               ; preds = %39
  %43 = load i32, ptr %5, align 4, !tbaa !8
  %44 = load i32, ptr %8, align 4, !tbaa !8
  %45 = call i32 @tcp_select_tx(i32 noundef %43, i32 noundef %44)
  store i32 %45, ptr %6, align 4, !tbaa !8
  br label %50

46:                                               ; preds = %39
  %47 = load i32, ptr %5, align 4, !tbaa !8
  %48 = load i32, ptr %8, align 4, !tbaa !8
  %49 = call i32 @tcp_select(i32 noundef %47, i32 noundef %48)
  store i32 %49, ptr %6, align 4, !tbaa !8
  br label %50

50:                                               ; preds = %46, %42
  %51 = load i32, ptr %6, align 4, !tbaa !8
  %52 = icmp eq i32 %51, 2
  br i1 %52, label %59, label %53

53:                                               ; preds = %50
  %54 = load i32, ptr %6, align 4, !tbaa !8
  %55 = icmp eq i32 %54, 3
  br i1 %55, label %59, label %56

56:                                               ; preds = %53
  %57 = load i32, ptr %6, align 4, !tbaa !8
  %58 = icmp eq i32 %57, 4
  br i1 %58, label %59, label %64

59:                                               ; preds = %56, %53, %50
  %60 = load ptr, ptr %2, align 8, !tbaa !12
  %61 = call i32 @wolfSSL_connect(ptr noundef %60)
  store i32 %61, ptr %3, align 4, !tbaa !8
  %62 = load ptr, ptr %2, align 8, !tbaa !12
  %63 = call i32 @wolfSSL_get_error(ptr noundef %62, i32 noundef 0)
  store i32 %63, ptr %4, align 4, !tbaa !8
  store i32 0, ptr %7, align 4, !tbaa !8
  br label %82

64:                                               ; preds = %56
  %65 = load i32, ptr %6, align 4, !tbaa !8
  %66 = icmp eq i32 %65, 1
  br i1 %66, label %67, label %80

67:                                               ; preds = %64
  %68 = load ptr, ptr %2, align 8, !tbaa !12
  %69 = call i32 @wolfSSL_dtls(ptr noundef %68)
  %70 = icmp ne i32 %69, 0
  br i1 %70, label %80, label %71

71:                                               ; preds = %67
  store i32 2, ptr %4, align 4, !tbaa !8
  %72 = load i32, ptr %8, align 4, !tbaa !8
  %73 = load i32, ptr %7, align 4, !tbaa !8
  %74 = add nsw i32 %73, %72
  store i32 %74, ptr %7, align 4, !tbaa !8
  %75 = load i32, ptr %7, align 4, !tbaa !8
  %76 = icmp sgt i32 %75, 10
  br i1 %76, label %77, label %79

77:                                               ; preds = %71
  %78 = call i32 (ptr, ...) @printf(ptr noundef @.str.218)
  store i32 -1, ptr %4, align 4, !tbaa !8
  br label %79

79:                                               ; preds = %77, %71
  br label %81

80:                                               ; preds = %67, %64
  store i32 -1, ptr %4, align 4, !tbaa !8
  br label %81

81:                                               ; preds = %80, %79
  br label %82

82:                                               ; preds = %81, %59
  call void @llvm.lifetime.end.p0(i64 4, ptr %8) #13
  br label %15, !llvm.loop !70

83:                                               ; preds = %26
  %84 = load i32, ptr %3, align 4, !tbaa !8
  call void @llvm.lifetime.end.p0(i64 4, ptr %7) #13
  call void @llvm.lifetime.end.p0(i64 4, ptr %6) #13
  call void @llvm.lifetime.end.p0(i64 4, ptr %5) #13
  call void @llvm.lifetime.end.p0(i64 4, ptr %4) #13
  call void @llvm.lifetime.end.p0(i64 4, ptr %3) #13
  ret i32 %84
}