; Function Attrs: nounwind uwtable
define internal fastcc i32 @NonBlockingSSL_Connect(ptr noundef nonnull %0) unnamed_addr #0 {
  %2 = alloca %struct.fd_set, align 8
  %3 = alloca %struct.fd_set, align 8
  %4 = alloca %struct.timeval, align 8
  %5 = alloca %struct.fd_set, align 8
  %6 = alloca %struct.fd_set, align 8
  %7 = alloca %struct.timeval, align 8
  %8 = tail call i32 @wolfSSL_connect(ptr noundef nonnull %0) #20
  %9 = tail call i32 @wolfSSL_get_error(ptr noundef nonnull %0, i32 noundef 0) #20
  %10 = tail call i32 @wolfSSL_get_fd(ptr noundef nonnull %0) #20
  %.not43 = icmp ne i32 %8, 1
  %11 = and i32 %9, -2
  %12 = icmp eq i32 %11, 2
  %or.cond4244 = select i1 %.not43, i1 %12, i1 false
  br i1 %or.cond4244, label %.lr.ph, label %.critedge

.lr.ph:                                           ; preds = %1
  %13 = getelementptr inbounds nuw i8, ptr %7, i64 8
  %14 = srem i32 %10, 64
  %15 = zext nneg i32 %14 to i64
  %16 = shl nuw i64 1, %15
  %17 = sdiv i32 %10, 64
  %18 = sext i32 %17 to i64
  %19 = getelementptr inbounds [16 x i64], ptr %5, i64 0, i64 %18
  %20 = add nsw i32 %10, 1
  %21 = getelementptr inbounds [16 x i64], ptr %6, i64 0, i64 %18
  %22 = getelementptr inbounds nuw i8, ptr %4, i64 8
  %23 = getelementptr inbounds [16 x i64], ptr %2, i64 0, i64 %18
  %24 = getelementptr inbounds [16 x i64], ptr %3, i64 0, i64 %18
  br label %25

25:                                               ; preds = %.lr.ph, %72
  %.047 = phi i32 [ %8, %.lr.ph ], [ %.1, %72 ]
  %.02646 = phi i32 [ 0, %.lr.ph ], [ %.127, %72 ]
  %.02945 = phi i32 [ %9, %.lr.ph ], [ %.130, %72 ]
  %26 = icmp eq i32 %.02945, 2
  br i1 %26, label %.critedge37, label %27

27:                                               ; preds = %25
  %puts = call i32 @puts(ptr nonnull dereferenceable(1) @str.13)
  call void @llvm.lifetime.start.p0(i64 128, ptr nonnull %5) #20
  call void @llvm.lifetime.start.p0(i64 128, ptr nonnull %6) #20
  call void @llvm.lifetime.start.p0(i64 16, ptr nonnull %7) #20
  store i64 1, ptr %7, align 8, !tbaa !29
  store i64 0, ptr %13, align 8, !tbaa !32
  call void @llvm.memset.p0.i64(ptr noundef nonnull align 8 dereferenceable(128) %5, i8 0, i64 128, i1 false), !tbaa !36
  %28 = load i64, ptr %19, align 8, !tbaa !36
  %29 = or i64 %28, %16
  store i64 %29, ptr %19, align 8, !tbaa !36
  call void @llvm.memset.p0.i64(ptr noundef nonnull align 8 dereferenceable(128) %6, i8 0, i64 128, i1 false), !tbaa !36
  %30 = load i64, ptr %21, align 8, !tbaa !36
  %31 = or i64 %30, %16
  store i64 %31, ptr %21, align 8, !tbaa !36
  %32 = call i32 @select(i32 noundef %20, ptr noundef null, ptr noundef nonnull %5, ptr noundef nonnull %6, ptr noundef nonnull %7) #20
  %33 = icmp eq i32 %32, 0
  br i1 %33, label %tcp_select_tx.exit, label %34

34:                                               ; preds = %27
  %35 = icmp sgt i32 %32, 0
  br i1 %35, label %36, label %42

36:                                               ; preds = %34
  %37 = load i64, ptr %19, align 8, !tbaa !36
  %38 = and i64 %37, %16
  %.not33.i.i = icmp eq i64 %38, 0
  br i1 %.not33.i.i, label %39, label %tcp_select_tx.exit

39:                                               ; preds = %36
  %40 = load i64, ptr %21, align 8, !tbaa !36
  %41 = and i64 %40, %16
  %.not34.i.i = icmp eq i64 %41, 0
  br i1 %.not34.i.i, label %42, label %tcp_select_tx.exit

42:                                               ; preds = %39, %34
  br label %tcp_select_tx.exit

tcp_select_tx.exit:                               ; preds = %27, %36, %39, %42
  %.0.i.i = phi i32 [ 0, %42 ], [ 1, %27 ], [ 4, %39 ], [ 3, %36 ]
  call void @llvm.lifetime.end.p0(i64 16, ptr nonnull %7) #20
  call void @llvm.lifetime.end.p0(i64 128, ptr nonnull %6) #20
  call void @llvm.lifetime.end.p0(i64 128, ptr nonnull %5) #20
  br label %58

.critedge37:                                      ; preds = %25
  %puts33 = call i32 @puts(ptr nonnull dereferenceable(1) @str.14)
  call void @llvm.lifetime.start.p0(i64 128, ptr nonnull %2) #20
  call void @llvm.lifetime.start.p0(i64 128, ptr nonnull %3) #20
  call void @llvm.lifetime.start.p0(i64 16, ptr nonnull %4) #20
  store i64 1, ptr %4, align 8, !tbaa !29
  store i64 0, ptr %22, align 8, !tbaa !32
  call void @llvm.memset.p0.i64(ptr noundef nonnull align 8 dereferenceable(128) %2, i8 0, i64 128, i1 false), !tbaa !36
  %43 = load i64, ptr %23, align 8, !tbaa !36
  %44 = or i64 %43, %16
  store i64 %44, ptr %23, align 8, !tbaa !36
  call void @llvm.memset.p0.i64(ptr noundef nonnull align 8 dereferenceable(128) %3, i8 0, i64 128, i1 false), !tbaa !36
  %45 = load i64, ptr %24, align 8, !tbaa !36
  %46 = or i64 %45, %16
  store i64 %46, ptr %24, align 8, !tbaa !36
  %47 = call i32 @select(i32 noundef %20, ptr noundef nonnull %2, ptr noundef null, ptr noundef nonnull %3, ptr noundef nonnull %4) #20
  %48 = icmp eq i32 %47, 0
  br i1 %48, label %tcp_select.exit, label %49

49:                                               ; preds = %.critedge37
  %50 = icmp sgt i32 %47, 0
  br i1 %50, label %51, label %57

51:                                               ; preds = %49
  %52 = load i64, ptr %23, align 8, !tbaa !36
  %53 = and i64 %52, %16
  %.not33.i.i39 = icmp eq i64 %53, 0
  br i1 %.not33.i.i39, label %54, label %tcp_select.exit

54:                                               ; preds = %51
  %55 = load i64, ptr %24, align 8, !tbaa !36
  %56 = and i64 %55, %16
  %.not34.i.i40 = icmp eq i64 %56, 0
  br i1 %.not34.i.i40, label %57, label %tcp_select.exit

57:                                               ; preds = %54, %49
  br label %tcp_select.exit

tcp_select.exit:                                  ; preds = %.critedge37, %51, %54, %57
  %.0.i.i38 = phi i32 [ 0, %57 ], [ 1, %.critedge37 ], [ 4, %54 ], [ 2, %51 ]
  call void @llvm.lifetime.end.p0(i64 16, ptr nonnull %4) #20
  call void @llvm.lifetime.end.p0(i64 128, ptr nonnull %3) #20
  call void @llvm.lifetime.end.p0(i64 128, ptr nonnull %2) #20
  br label %58

58:                                               ; preds = %tcp_select.exit, %tcp_select_tx.exit
  %.028 = phi i32 [ %.0.i.i, %tcp_select_tx.exit ], [ %.0.i.i38, %tcp_select.exit ]
  %59 = and i32 %.028, 6
  %or.cond = icmp eq i32 %59, 2
  %60 = icmp eq i32 %.028, 4
  %or.cond3 = or i1 %60, %or.cond
  br i1 %or.cond3, label %61, label %64

61:                                               ; preds = %58
  %62 = call i32 @wolfSSL_connect(ptr noundef nonnull %0) #20
  %63 = call i32 @wolfSSL_get_error(ptr noundef nonnull %0, i32 noundef 0) #20
  br label %72

64:                                               ; preds = %58
  %65 = icmp eq i32 %.028, 1
  br i1 %65, label %66, label %.critedge

66:                                               ; preds = %64
  %67 = call i32 @wolfSSL_dtls(ptr noundef nonnull %0) #20
  %.not34 = icmp eq i32 %67, 0
  br i1 %.not34, label %68, label %.critedge

68:                                               ; preds = %66
  %69 = add nsw i32 %.02646, 1
  %70 = icmp sgt i32 %.02646, 9
  br i1 %70, label %71, label %72

71:                                               ; preds = %68
  %puts35 = call i32 @puts(ptr nonnull dereferenceable(1) @str.15)
  br label %.critedge

72:                                               ; preds = %68, %61
  %.130 = phi i32 [ %63, %61 ], [ 2, %68 ]
  %.127 = phi i32 [ 0, %61 ], [ %69, %68 ]
  %.1 = phi i32 [ %62, %61 ], [ %.047, %68 ]
  %.not = icmp ne i32 %.1, 1
  %73 = and i32 %.130, -2
  %74 = icmp eq i32 %73, 2
  %or.cond42 = select i1 %.not, i1 %74, i1 false
  br i1 %or.cond42, label %25, label %.critedge, !llvm.loop !65

.critedge:                                        ; preds = %64, %66, %72, %71, %1
  %.0.lcssa = phi i32 [ %8, %1 ], [ %.047, %71 ], [ %.047, %64 ], [ %.047, %66 ], [ %.1, %72 ]
  ret i32 %.0.lcssa
}